Certificate:
    Data:
        Version: 3 (0x2)
        Serial Number: 1 (0x1)
        Signature Algorithm: sha256WithRSAEncryption
        Issuer: C=FR, ST=Radius, L=Somewhere, O=Example Inc./emailAddress=admin@example.org, CN=Example Certificate Authority
        Validity
            Not Before: Dec 18 03:21:58 2019 GMT
            Not After : Feb 16 03:21:58 2020 GMT
        Subject: C=FR, ST=Radius, O=Example Inc., CN=Example Server Certificate/emailAddress=admin@example.org
        Subject Public Key Info:
            Public Key Algorithm: rsaEncryption
                RSA Public-Key: (2048 bit)
                Modulus:
                    00:c5:87:ce:f0:9b:c3:47:02:dd:7f:eb:b5:78:aa:
                    08:90:a9:c9:e1:d2:fd:db:4e:07:ef:78:0d:2a:10:
                    bc:6b:9c:b5:aa:02:42:8c:6c:e3:5e:26:59:9f:ef:
                    f0:f5:bc:44:62:60:e2:b2:fc:df:fa:7f:02:c6:15:
                    6e:b0:4a:68:41:d5:ce:66:aa:69:ff:2a:5d:a6:d5:
                    7d:3f:70:b1:80:83:ec:90:2a:c5:9e:06:2b:0c:c5:
                    f1:a5:fb:66:70:af:bc:11:46:81:b1:25:a6:43:e4:
                    56:1c:14:3c:39:af:cc:1e:95:4c:67:c6:0f:d3:f2:
                    16:22:cf:09:d6:99:a6:73:76:91:87:07:e6:a6:c2:
                    12:1a:18:8f:f7:53:10:e0:4b:b1:8a:34:32:a3:f0:
                    d5:9c:7a:61:b8:6c:c9:14:74:ae:47:1f:d5:53:e2:
                    8b:7e:74:e1:12:06:8c:ff:cd:06:ad:6a:8b:ea:56:
                    0f:af:60:f2:15:fa:36:18:af:a5:28:c7:be:38:31:
                    6b:32:b0:05:8b:66:e8:99:0b:0a:42:9a:db:38:15:
                    1a:22:92:02:82:26:2a:3c:5f:38:0d:7f:e9:c7:92:
                    6a:48:2a:80:40:06:1e:8a:19:23:78:99:82:31:5f:
                    04:8d:59:a0:3f:aa:8e:14:74:c6:a1:48:6f:76:ff:
                    33:c3
                Exponent: 65537 (0x10001)
        X509v3 extensions:
            X509v3 Extended Key Usage: 
                TLS Web Server Authentication
            X509v3 CRL Distribution Points: 

                Full Name:
                  URI:http://www.example.com/example_ca.crl

    Signature Algorithm: sha256WithRSAEncryption
         11:1b:27:ea:5f:08:6a:25:18:b5:6b:ac:45:2d:95:73:f1:cf:
         a7:b1:08:fb:e8:16:73:f7:5a:1c:64:51:11:c4:9d:6c:eb:26:
         22:f5:7a:a2:3d:7e:4e:a7:17:55:9d:d6:b3:c8:a0:67:0d:67:
         03:d4:f3:8e:e3:b5:27:51:9d:d2:d5:8a:1f:e6:2a:92:37:89:
         ce:d8:9b:74:e6:68:95:35:1d:9a:9b:1b:c0:67:7a:55:0a:c3:
         db:1f:f0:cd:54:60:1a:f6:2d:a6:b0:e9:8e:52:b6:57:3d:07:
         fb:3f:66:bc:d2:90:57:ba:5e:91:91:32:40:f5:37:65:ee:d0:
         b0:5e:96:91:fe:16:86:65:2c:77:79:50:42:1b:67:8d:6c:b8:
         56:fa:c1:87:a2:44:ae:12:74:be:1f:53:38:d8:82:74:44:05:
         87:09:60:83:f7:db:41:cc:61:4b:28:10:8b:0b:97:b0:24:be:
         43:42:0b:03:e6:dc:58:26:ef:10:3a:5e:b9:37:f6:d2:a1:d9:
         2f:80:36:c3:41:88:69:b6:d1:56:82:10:de:8e:d4:c2:c5:34:
         64:42:67:3d:2a:9a:d5:c6:23:21:ed:4f:24:77:18:38:68:9b:
         d1:2d:8f:a4:e8:a0:78:0a:6a:de:af:4c:17:f1:61:92:75:0c:
         1d:24:72:95
-----BEGIN CERTIFICATE-----
MIID2jCCAsKgAwIBAgIBATANBgkqhkiG9w0BAQsFADCBkzELMAkGA1UEBhMCRlIx
DzANBgNVBAgMBlJhZGl1czESMBAGA1UEBwwJU29tZXdoZXJlMRUwEwYDVQQKDAxF
eGFtcGxlIEluYy4xIDAeBgkqhkiG9w0BCQEWEWFkbWluQGV4YW1wbGUub3JnMSYw
JAYDVQQDDB1FeGFtcGxlIENlcnRpZmljYXRlIEF1dGhvcml0eTAeFw0xOTEyMTgw
MzIxNThaFw0yMDAyMTYwMzIxNThaMHwxCzAJBgNVBAYTAkZSMQ8wDQYDVQQIDAZS
YWRpdXMxFTATBgNVBAoMDEV4YW1wbGUgSW5jLjEjMCEGA1UEAwwaRXhhbXBsZSBT
ZXJ2ZXIgQ2VydGlmaWNhdGUxIDAeBgkqhkiG9w0BCQEWEWFkbWluQGV4YW1wbGUu
b3JnMIIBIjANBgkqhkiG9w0BAQEFAAOCAQ8AMIIBCgKCAQEAxYfO8JvDRwLdf+u1
eKoIkKnJ4dL9204H73gNKhC8a5y1qgJCjGzjXiZZn+/w9bxEYmDisvzf+n8CxhVu
sEpoQdXOZqpp/ypdptV9P3CxgIPskCrFngYrDMXxpftmcK+8EUaBsSWmQ+RWHBQ8
Oa/MHpVMZ8YP0/IWIs8J1pmmc3aRhwfmpsISGhiP91MQ4EuxijQyo/DVnHphuGzJ
FHSuRx/VU+KLfnThEgaM/80GrWqL6lYPr2DyFfo2GK+lKMe+ODFrMrAFi2bomQsK
QprbOBUaIpICgiYqPF84DX/px5JqSCqAQAYeihkjeJmCMV8EjVmgP6qOFHTGoUhv
dv8zwwIDAQABo08wTTATBgNVHSUEDDAKBggrBgEFBQcDATA2BgNVHR8ELzAtMCug
KaAnhiVodHRwOi8vd3d3LmV4YW1wbGUuY29tL2V4YW1wbGVfY2EuY3JsMA0GCSqG
SIb3DQEBCwUAA4IBAQARGyfqXwhqJRi1a6xFLZVz8c+nsQj76BZz91ocZFERxJ1s
6yYi9XqiPX5OpxdVndazyKBnDWcD1POO47UnUZ3S1Yof5iqSN4nO2Jt05miVNR2a
mxvAZ3pVCsPbH/DNVGAa9i2msOmOUrZXPQf7P2a80pBXul6RkTJA9Tdl7tCwXpaR
/haGZSx3eVBCG2eNbLhW+sGHokSuEnS+H1M42IJ0RAWHCWCD99tBzGFLKBCLC5ew
JL5DQgsD5txYJu8QOl65N/bSodkvgDbDQYhpttFWghDejtTCxTRkQmc9KprVxiMh
7U8kdxg4aJvRLY+k6KB4Cmrer0wX8WGSdQwdJHKV
-----END CERTIFICATE-----
