Certificate:
    Data:
        Version: 3 (0x2)
        Serial Number: 1 (0x1)
    Signature Algorithm: sha256WithRSAEncryption
        Issuer: C=FR, ST=Radius, L=Somewhere, O=Example Inc./emailAddress=admin@example.org, CN=Example Certificate Authority
        Validity
            Not Before: Jun  9 08:17:45 2020 GMT
            Not After : Aug  8 08:17:45 2020 GMT
        Subject: C=FR, ST=Radius, O=Example Inc., CN=Example Server Certificate/emailAddress=admin@example.org
        Subject Public Key Info:
            Public Key Algorithm: rsaEncryption
                Public-Key: (2048 bit)
                Modulus:
                    00:e2:fe:ae:bc:25:57:32:4a:26:01:c8:65:c1:f9:
                    81:08:e8:df:b7:0a:21:3f:dd:0d:9c:8a:f7:ca:b1:
                    25:ad:75:24:45:cf:32:c4:fc:ce:e1:37:65:be:f7:
                    1e:62:95:6a:c8:e7:f4:8b:d6:42:0e:81:fb:48:1b:
                    0c:68:06:70:a3:0e:12:2d:69:31:ed:0c:b1:b9:d0:
                    b1:1b:c4:d4:d4:ab:a1:6f:27:b7:c1:41:39:ac:28:
                    fa:3b:b3:ba:7b:46:2e:2f:e0:53:0d:9c:7f:f6:61:
                    86:47:a4:9b:de:49:f4:cd:4d:2e:ff:06:d8:21:07:
                    c1:ec:fb:52:a7:8a:2e:35:67:06:d0:77:51:9d:ae:
                    88:61:93:b6:5e:e8:d0:af:94:37:56:ae:b2:95:60:
                    31:8f:a3:97:68:e5:0b:8e:09:a5:92:06:f8:8d:a4:
                    e9:d6:ed:5b:16:53:16:02:d3:71:6f:bd:db:72:d0:
                    6f:aa:3a:17:74:41:d5:ca:83:5c:bb:b6:73:2f:c0:
                    d4:9f:b6:d6:53:84:3a:a3:82:0e:16:81:b2:7f:a2:
                    a1:9b:18:2b:e6:e7:4a:dc:f5:b9:04:cc:d3:6d:43:
                    01:b7:75:6e:df:fa:21:9b:55:3e:f9:1a:29:d9:0d:
                    fc:a9:70:4c:f6:fb:25:b7:a2:9e:de:46:18:eb:fd:
                    0b:d9
                Exponent: 65537 (0x10001)
        X509v3 extensions:
            X509v3 Extended Key Usage: 
                TLS Web Server Authentication
            X509v3 CRL Distribution Points: 

                Full Name:
                  URI:http://www.example.com/example_ca.crl

    Signature Algorithm: sha256WithRSAEncryption
         5f:e2:d2:bb:e1:6e:f7:f2:d5:26:6d:9b:84:e4:a5:77:e7:a3:
         84:77:50:62:78:e2:52:e5:a6:7d:08:cd:aa:76:63:c4:31:3e:
         9d:70:f3:71:9f:6e:e0:0d:48:01:cd:8c:03:3e:cd:6b:c1:7b:
         74:6b:68:b2:2e:3f:83:0d:64:28:c3:30:3e:d4:fe:3e:f5:f1:
         5a:da:b6:8a:72:7a:dd:fa:e9:17:4e:24:54:c9:89:fb:70:44:
         42:75:bb:e6:58:c2:fc:fa:af:26:a3:ed:d0:98:7c:94:a7:d2:
         49:31:be:b6:f8:79:92:97:4e:bc:c0:63:c9:ca:9e:d8:00:f2:
         de:c3:11:e9:e3:2a:52:a8:d1:17:4d:e7:99:25:59:5b:ec:78:
         7f:32:d6:d1:7f:16:d6:4b:db:eb:80:ab:b9:cf:72:73:3f:05:
         2c:d9:c5:3c:39:bf:99:eb:69:28:37:c3:3b:96:0f:38:10:9f:
         2b:1b:8d:b3:21:8e:9d:a9:9d:ba:d8:bf:78:84:a5:5f:33:12:
         b2:03:4d:f9:ad:3d:c1:60:15:c6:9f:1d:b9:26:b3:a4:63:c5:
         80:57:2e:7c:9a:50:75:9c:ce:ad:2e:04:db:ba:05:99:62:89:
         4e:db:95:24:02:d1:5a:ca:6d:5d:da:bd:e1:aa:d4:91:19:84:
         37:d8:fb:ba
-----BEGIN CERTIFICATE-----
MIID2jCCAsKgAwIBAgIBATANBgkqhkiG9w0BAQsFADCBkzELMAkGA1UEBhMCRlIx
DzANBgNVBAgMBlJhZGl1czESMBAGA1UEBwwJU29tZXdoZXJlMRUwEwYDVQQKDAxF
eGFtcGxlIEluYy4xIDAeBgkqhkiG9w0BCQEWEWFkbWluQGV4YW1wbGUub3JnMSYw
JAYDVQQDDB1FeGFtcGxlIENlcnRpZmljYXRlIEF1dGhvcml0eTAeFw0yMDA2MDkw
ODE3NDVaFw0yMDA4MDgwODE3NDVaMHwxCzAJBgNVBAYTAkZSMQ8wDQYDVQQIDAZS
YWRpdXMxFTATBgNVBAoMDEV4YW1wbGUgSW5jLjEjMCEGA1UEAwwaRXhhbXBsZSBT
ZXJ2ZXIgQ2VydGlmaWNhdGUxIDAeBgkqhkiG9w0BCQEWEWFkbWluQGV4YW1wbGUu
b3JnMIIBIjANBgkqhkiG9w0BAQEFAAOCAQ8AMIIBCgKCAQEA4v6uvCVXMkomAchl
wfmBCOjftwohP90NnIr3yrElrXUkRc8yxPzO4TdlvvceYpVqyOf0i9ZCDoH7SBsM
aAZwow4SLWkx7QyxudCxG8TU1Kuhbye3wUE5rCj6O7O6e0YuL+BTDZx/9mGGR6Sb
3kn0zU0u/wbYIQfB7PtSp4ouNWcG0HdRna6IYZO2XujQr5Q3Vq6ylWAxj6OXaOUL
jgmlkgb4jaTp1u1bFlMWAtNxb73bctBvqjoXdEHVyoNcu7ZzL8DUn7bWU4Q6o4IO
FoGyf6Khmxgr5udK3PW5BMzTbUMBt3Vu3/ohm1U++Rop2Q38qXBM9vslt6Ke3kYY
6/0L2QIDAQABo08wTTATBgNVHSUEDDAKBggrBgEFBQcDATA2BgNVHR8ELzAtMCug
KaAnhiVodHRwOi8vd3d3LmV4YW1wbGUuY29tL2V4YW1wbGVfY2EuY3JsMA0GCSqG
SIb3DQEBCwUAA4IBAQBf4tK74W738tUmbZuE5KV356OEd1BieOJS5aZ9CM2qdmPE
MT6dcPNxn27gDUgBzYwDPs1rwXt0a2iyLj+DDWQowzA+1P4+9fFa2raKcnrd+ukX
TiRUyYn7cERCdbvmWML8+q8mo+3QmHyUp9JJMb62+HmSl068wGPJyp7YAPLewxHp
4ypSqNEXTeeZJVlb7Hh/MtbRfxbWS9vrgKu5z3JzPwUs2cU8Ob+Z62koN8M7lg84
EJ8rG42zIY6dqZ262L94hKVfMxKyA035rT3BYBXGnx25JrOkY8WAVy58mlB1nM6t
LgTbugWZYolO25UkAtFaym1d2r3hqtSRGYQ32Pu6
-----END CERTIFICATE-----
