Certificate:
    Data:
        Version: 3 (0x2)
        Serial Number: 2 (0x2)
        Signature Algorithm: sha256WithRSAEncryption
        Issuer: C=FR, ST=Radius, L=Somewhere, O=Example Inc./emailAddress=admin@example.org, CN=Example Certificate Authority
        Validity
            Not Before: Dec 18 03:21:58 2019 GMT
            Not After : Feb 16 03:21:58 2020 GMT
        Subject: C=FR, ST=Radius, O=Example Inc., CN=user@example.org/emailAddress=user@example.org
        Subject Public Key Info:
            Public Key Algorithm: rsaEncryption
                RSA Public-Key: (2048 bit)
                Modulus:
                    00:e4:13:43:c4:d4:dc:07:71:39:3f:61:3d:04:4a:
                    8b:00:9b:94:b1:c1:22:79:b4:49:90:2a:72:cf:53:
                    c1:2a:e1:dc:a1:a0:e3:a1:28:ca:78:a8:04:21:65:
                    ad:d6:b3:a8:6e:91:1c:a6:21:87:18:92:2e:07:71:
                    2c:7e:c7:fe:62:ab:97:d0:41:8e:cc:d7:7e:e6:f9:
                    58:08:5b:6f:87:3c:7a:0e:40:8d:17:8e:02:a8:b1:
                    d5:0a:2a:6d:57:51:dd:0f:75:3a:4d:ff:32:9e:ae:
                    52:8f:08:5f:dc:69:e4:35:52:8d:94:1c:3d:d4:6f:
                    cd:bf:2c:29:6f:22:03:c8:6e:94:c7:2a:6b:f3:9b:
                    3d:5c:e3:de:74:33:6e:da:8a:89:25:7f:83:dc:3c:
                    29:86:c6:ea:7c:29:28:19:52:a7:ed:c6:6f:a4:8f:
                    ee:a9:07:f7:e3:e0:63:30:2b:03:b4:90:9c:d8:b4:
                    67:f1:dc:93:5d:39:33:71:d6:1d:a0:50:29:f3:c2:
                    32:91:87:2f:e0:ac:8d:27:74:11:8a:d0:ec:ed:76:
                    67:26:64:11:29:02:37:fb:c9:39:21:2c:0c:5c:b4:
                    99:f6:7f:66:69:59:ec:83:d0:f0:f7:99:07:e0:e8:
                    1b:1f:a4:0b:34:f2:0b:ec:ff:c3:78:ea:9c:9d:d9:
                    e9:e5
                Exponent: 65537 (0x10001)
        X509v3 extensions:
            X509v3 Extended Key Usage: 
                TLS Web Client Authentication
            X509v3 CRL Distribution Points: 

                Full Name:
                  URI:http://www.example.com/example_ca.crl

    Signature Algorithm: sha256WithRSAEncryption
         9e:fa:4e:5f:2c:c8:3d:5a:93:f0:35:f3:e2:02:7a:3c:d9:68:
         38:93:b2:41:81:28:c2:5f:88:c2:41:17:43:6b:49:03:f4:de:
         d9:03:7f:3d:18:ce:31:d0:b8:54:8c:0a:d7:8d:1c:25:0f:b6:
         c3:ab:ca:51:62:f0:fd:27:5d:78:df:bf:6d:83:b0:aa:6d:7d:
         79:45:df:05:da:88:16:6f:9a:ea:70:81:27:78:78:3a:c3:74:
         d2:6d:c1:cb:4c:09:6c:71:10:f6:13:64:b6:d7:37:7c:e1:5d:
         47:c7:32:89:65:74:dc:73:53:12:3d:19:32:04:50:17:20:38:
         c3:f0:c4:5b:42:19:f6:0f:30:1b:b9:6d:b1:aa:9a:b7:22:b5:
         dc:46:b1:b5:31:3f:b0:e3:59:d3:34:a5:82:8e:d5:46:aa:b1:
         fd:c7:ef:6d:c1:c5:d4:93:c3:eb:69:df:9a:8d:c5:7e:46:d0:
         5a:07:13:57:2b:15:6c:27:58:04:fd:4d:24:23:fb:d3:3c:42:
         2e:c3:ef:14:0b:c1:53:a9:7c:40:66:f2:43:73:c0:5e:d3:46:
         a7:e9:b1:39:56:01:cf:22:59:bc:31:55:0d:98:11:7a:af:b4:
         96:b0:5d:8c:a7:42:3b:c7:4f:b8:3c:52:af:7f:d0:29:f2:44:
         af:f1:5c:1f
-----BEGIN CERTIFICATE-----
MIIDzzCCAregAwIBAgIBAjANBgkqhkiG9w0BAQsFADCBkzELMAkGA1UEBhMCRlIx
DzANBgNVBAgMBlJhZGl1czESMBAGA1UEBwwJU29tZXdoZXJlMRUwEwYDVQQKDAxF
eGFtcGxlIEluYy4xIDAeBgkqhkiG9w0BCQEWEWFkbWluQGV4YW1wbGUub3JnMSYw
JAYDVQQDDB1FeGFtcGxlIENlcnRpZmljYXRlIEF1dGhvcml0eTAeFw0xOTEyMTgw
MzIxNThaFw0yMDAyMTYwMzIxNThaMHExCzAJBgNVBAYTAkZSMQ8wDQYDVQQIDAZS
YWRpdXMxFTATBgNVBAoMDEV4YW1wbGUgSW5jLjEZMBcGA1UEAwwQdXNlckBleGFt
cGxlLm9yZzEfMB0GCSqGSIb3DQEJARYQdXNlckBleGFtcGxlLm9yZzCCASIwDQYJ
KoZIhvcNAQEBBQADggEPADCCAQoCggEBAOQTQ8TU3AdxOT9hPQRKiwCblLHBInm0
SZAqcs9TwSrh3KGg46EoynioBCFlrdazqG6RHKYhhxiSLgdxLH7H/mKrl9BBjszX
fub5WAhbb4c8eg5AjReOAqix1QoqbVdR3Q91Ok3/Mp6uUo8IX9xp5DVSjZQcPdRv
zb8sKW8iA8hulMcqa/ObPVzj3nQzbtqKiSV/g9w8KYbG6nwpKBlSp+3Gb6SP7qkH
9+PgYzArA7SQnNi0Z/Hck105M3HWHaBQKfPCMpGHL+CsjSd0EYrQ7O12ZyZkESkC
N/vJOSEsDFy0mfZ/ZmlZ7IPQ8PeZB+DoGx+kCzTyC+z/w3jqnJ3Z6eUCAwEAAaNP
ME0wEwYDVR0lBAwwCgYIKwYBBQUHAwIwNgYDVR0fBC8wLTAroCmgJ4YlaHR0cDov
L3d3dy5leGFtcGxlLmNvbS9leGFtcGxlX2NhLmNybDANBgkqhkiG9w0BAQsFAAOC
AQEAnvpOXyzIPVqT8DXz4gJ6PNloOJOyQYEowl+IwkEXQ2tJA/Te2QN/PRjOMdC4
VIwK140cJQ+2w6vKUWLw/SddeN+/bYOwqm19eUXfBdqIFm+a6nCBJ3h4OsN00m3B
y0wJbHEQ9hNkttc3fOFdR8cyiWV03HNTEj0ZMgRQFyA4w/DEW0IZ9g8wG7ltsaqa
tyK13EaxtTE/sONZ0zSlgo7VRqqx/cfvbcHF1JPD62nfmo3FfkbQWgcTVysVbCdY
BP1NJCP70zxCLsPvFAvBU6l8QGbyQ3PAXtNGp+mxOVYBzyJZvDFVDZgReq+0lrBd
jKdCO8dPuDxSr3/QKfJEr/FcHw==
-----END CERTIFICATE-----
