Certificate:
    Data:
        Version: 3 (0x2)
        Serial Number: 2 (0x2)
        Signature Algorithm: sha256WithRSAEncryption
        Issuer: C=FR, ST=Radius, L=Somewhere, O=Example Inc./emailAddress=admin@example.org, CN=Example Certificate Authority
        Validity
            Not Before: Apr 16 06:33:30 2021 GMT
            Not After : Apr 15 06:33:30 2024 GMT
        Subject: C=FR, ST=Radius, O=Example Inc., CN=user@example.org/emailAddress=user@example.org
        Subject Public Key Info:
            Public Key Algorithm: rsaEncryption
                RSA Public-Key: (2048 bit)
                Modulus:
                    00:c0:83:5b:d2:0a:8d:10:7c:37:61:9b:fd:33:0e:
                    82:1f:4a:d2:25:27:82:47:7e:15:10:d4:61:a8:4b:
                    a5:56:76:a8:a3:10:9c:31:5f:5d:28:9e:c2:5e:fa:
                    ff:45:9b:99:dc:20:a1:3a:a4:c2:52:20:1a:c9:fd:
                    6f:7e:b3:29:e7:2e:e2:9c:9d:fb:f6:12:67:dd:21:
                    46:ed:25:d6:ab:c5:27:81:1d:7b:b9:35:ac:60:70:
                    06:cc:d2:f9:3c:ad:0e:bb:10:da:6b:97:2c:f2:12:
                    c5:03:2d:7e:c1:6b:97:bc:eb:ac:ac:d0:3f:93:5f:
                    8b:f9:8a:86:ed:55:ac:da:a9:b2:d7:50:a0:54:b1:
                    1d:a9:17:d8:2e:23:85:86:ef:43:ec:ef:55:33:6a:
                    da:d6:d0:90:fd:6f:6f:07:9e:bc:c8:01:fa:fa:eb:
                    d9:34:57:35:88:39:27:66:f0:23:b9:3b:4c:7f:54:
                    a1:e7:90:97:04:94:aa:b4:fc:7c:49:96:c3:09:a2:
                    59:9a:5f:87:94:38:b4:26:55:78:c0:fb:6e:34:25:
                    2f:9a:bd:ac:58:02:27:2b:7f:30:da:da:96:d8:47:
                    64:6b:de:9d:25:7b:d5:7f:16:ae:d7:23:3f:a5:06:
                    0a:2c:fd:a4:6a:25:da:d9:fd:ce:95:08:55:56:bf:
                    cd:87
                Exponent: 65537 (0x10001)
        X509v3 extensions:
            X509v3 Extended Key Usage: 
                TLS Web Client Authentication
            X509v3 CRL Distribution Points: 

                Full Name:
                  URI:http://www.example.com/example_ca.crl

    Signature Algorithm: sha256WithRSAEncryption
         00:63:90:3b:2b:e9:1b:47:e9:3e:7b:8f:82:bd:dc:cc:b4:82:
         3c:06:a3:dd:51:40:f6:08:c0:7c:5f:40:de:e7:bd:2e:b5:46:
         28:eb:46:00:74:27:bc:ee:5f:92:14:d4:da:dc:d6:81:06:22:
         a7:4f:bf:b9:d8:08:f3:95:84:42:a2:0d:c8:fe:35:6f:fc:57:
         e8:11:f2:04:5c:f9:3e:9f:57:d9:10:4e:c1:aa:b2:0e:50:9b:
         af:b5:a1:c5:98:9b:e3:d4:1e:f1:13:0e:7c:65:12:0a:e8:15:
         f8:dd:b2:35:73:52:c7:be:e4:53:5e:eb:3c:15:5c:f1:d5:c6:
         57:09:01:a5:33:e2:03:a5:2c:1c:1d:c9:60:41:78:be:41:4e:
         42:ba:7d:da:f1:d3:5c:ac:f5:18:96:d8:d1:e6:d4:be:39:63:
         28:cc:68:3c:6f:80:81:7a:25:03:8d:5d:01:c9:be:36:90:35:
         ba:f5:fc:0b:b5:91:52:63:68:e0:e8:f8:38:ff:76:a6:b2:2a:
         75:1e:25:3f:e0:67:b8:67:2b:52:69:ea:e0:3a:1c:cd:67:af:
         96:3d:30:a7:83:e3:f4:56:fe:9f:a9:de:bc:24:17:c7:61:01:
         a0:d2:5f:75:43:0b:4b:60:2b:c8:ca:cc:64:0a:7b:72:37:51:
         00:b9:24:10
-----BEGIN CERTIFICATE-----
MIIDzzCCAregAwIBAgIBAjANBgkqhkiG9w0BAQsFADCBkzELMAkGA1UEBhMCRlIx
DzANBgNVBAgMBlJhZGl1czESMBAGA1UEBwwJU29tZXdoZXJlMRUwEwYDVQQKDAxF
eGFtcGxlIEluYy4xIDAeBgkqhkiG9w0BCQEWEWFkbWluQGV4YW1wbGUub3JnMSYw
JAYDVQQDDB1FeGFtcGxlIENlcnRpZmljYXRlIEF1dGhvcml0eTAeFw0yMTA0MTYw
NjMzMzBaFw0yNDA0MTUwNjMzMzBaMHExCzAJBgNVBAYTAkZSMQ8wDQYDVQQIDAZS
YWRpdXMxFTATBgNVBAoMDEV4YW1wbGUgSW5jLjEZMBcGA1UEAwwQdXNlckBleGFt
cGxlLm9yZzEfMB0GCSqGSIb3DQEJARYQdXNlckBleGFtcGxlLm9yZzCCASIwDQYJ
KoZIhvcNAQEBBQADggEPADCCAQoCggEBAMCDW9IKjRB8N2Gb/TMOgh9K0iUngkd+
FRDUYahLpVZ2qKMQnDFfXSiewl76/0WbmdwgoTqkwlIgGsn9b36zKecu4pyd+/YS
Z90hRu0l1qvFJ4Ede7k1rGBwBszS+TytDrsQ2muXLPISxQMtfsFrl7zrrKzQP5Nf
i/mKhu1VrNqpstdQoFSxHakX2C4jhYbvQ+zvVTNq2tbQkP1vbweevMgB+vrr2TRX
NYg5J2bwI7k7TH9UoeeQlwSUqrT8fEmWwwmiWZpfh5Q4tCZVeMD7bjQlL5q9rFgC
Jyt/MNralthHZGvenSV71X8WrtcjP6UGCiz9pGol2tn9zpUIVVa/zYcCAwEAAaNP
ME0wEwYDVR0lBAwwCgYIKwYBBQUHAwIwNgYDVR0fBC8wLTAroCmgJ4YlaHR0cDov
L3d3dy5leGFtcGxlLmNvbS9leGFtcGxlX2NhLmNybDANBgkqhkiG9w0BAQsFAAOC
AQEAAGOQOyvpG0fpPnuPgr3czLSCPAaj3VFA9gjAfF9A3ue9LrVGKOtGAHQnvO5f
khTU2tzWgQYip0+/udgI85WEQqINyP41b/xX6BHyBFz5Pp9X2RBOwaqyDlCbr7Wh
xZib49Qe8RMOfGUSCugV+N2yNXNSx77kU17rPBVc8dXGVwkBpTPiA6UsHB3JYEF4
vkFOQrp92vHTXKz1GJbY0ebUvjljKMxoPG+AgXolA41dAcm+NpA1uvX8C7WRUmNo
4Oj4OP92prIqdR4lP+BnuGcrUmnq4DoczWevlj0wp4Pj9Fb+n6nevCQXx2EBoNJf
dUMLS2AryMrMZAp7cjdRALkkEA==
-----END CERTIFICATE-----
