Certificate:
    Data:
        Version: 3 (0x2)
        Serial Number: 2 (0x2)
    Signature Algorithm: sha256WithRSAEncryption
        Issuer: C=FR, ST=Radius, L=Somewhere, O=Example Inc./emailAddress=admin@example.org, CN=Example Certificate Authority
        Validity
            Not Before: Jun  9 08:17:46 2020 GMT
            Not After : Aug  8 08:17:46 2020 GMT
        Subject: C=FR, ST=Radius, O=Example Inc., CN=user@example.org/emailAddress=user@example.org
        Subject Public Key Info:
            Public Key Algorithm: rsaEncryption
                Public-Key: (2048 bit)
                Modulus:
                    00:bc:e5:39:d8:18:b6:38:30:e7:c1:fc:93:39:86:
                    a1:26:f8:fd:f9:91:9a:a0:cb:1d:d9:d2:e2:39:c4:
                    43:e5:0f:d6:ef:45:7f:e0:c1:2e:db:83:ec:e2:1f:
                    18:f0:87:5e:f5:3b:8e:c9:fd:b0:75:0e:e9:b0:bf:
                    ec:fe:53:ce:f1:9a:10:7a:c4:54:4f:3f:48:e4:07:
                    bf:aa:0b:57:36:64:a8:46:8d:64:76:1c:8a:dc:9f:
                    5e:f9:0d:de:90:0b:45:1c:83:ee:78:5a:5f:1a:92:
                    38:9b:4c:d0:73:7b:8f:ab:15:21:c9:5b:4e:9c:b2:
                    f4:e6:cb:1d:7e:a0:5e:90:44:70:9a:42:3b:b0:6f:
                    8b:13:0b:d2:de:6b:4e:7f:31:df:1f:fd:9a:c2:7e:
                    fb:8a:a6:4d:26:a1:3e:47:f5:c9:fe:a1:fd:8c:6b:
                    6b:9f:05:e7:b0:ed:39:80:44:f5:fa:3e:3e:0f:2a:
                    c2:02:b6:6e:75:f1:8d:3f:1f:bd:77:82:76:31:9a:
                    98:94:b4:22:10:5d:13:7a:26:84:55:64:4b:d3:57:
                    f6:05:a7:0c:bb:6d:4c:ff:b1:b9:21:2a:21:db:bd:
                    c6:57:0a:25:bc:d5:58:50:3d:90:23:a6:9d:2f:aa:
                    e2:4f:5f:ed:bb:9f:77:4e:2b:48:35:51:2b:30:e2:
                    ad:f3
                Exponent: 65537 (0x10001)
        X509v3 extensions:
            X509v3 Extended Key Usage: 
                TLS Web Client Authentication
            X509v3 CRL Distribution Points: 

                Full Name:
                  URI:http://www.example.com/example_ca.crl

    Signature Algorithm: sha256WithRSAEncryption
         84:d7:d7:01:31:79:15:71:98:39:b1:1e:59:82:45:85:06:19:
         5a:1b:6b:1c:5f:c9:6d:d6:a9:c4:5a:55:a6:9f:87:a2:38:84:
         75:65:6b:1d:f2:c7:7a:c2:0f:83:e2:89:1e:c6:e2:2e:8d:3e:
         fc:66:52:30:89:06:b2:69:3b:8d:ba:7f:a0:7e:44:b7:35:e6:
         a3:85:d9:ec:2a:53:1a:56:12:b6:13:ec:92:4b:04:7f:f1:10:
         fc:2c:a3:65:fb:24:7e:5e:85:e1:23:5a:c3:f7:f7:fb:51:3a:
         04:3e:69:95:94:3b:8d:8e:4c:4c:16:f0:0f:d7:c3:77:a3:0b:
         2e:ac:c5:b8:da:5a:dc:3b:e7:21:ad:24:29:11:f0:24:f7:96:
         8d:32:00:4d:8d:38:8d:a5:3e:10:5c:fd:08:13:85:ea:a3:7b:
         0f:0a:e0:90:2b:22:fb:eb:f0:b2:46:e4:0f:49:1c:71:76:d1:
         83:3b:8d:aa:67:23:1b:3e:a5:cd:cb:3f:f8:69:d7:d3:6f:9f:
         83:27:d3:bf:15:db:0e:34:5d:ed:b9:ee:90:29:8c:61:67:50:
         16:5c:d0:67:01:ed:4e:ba:a7:a0:95:17:8c:4f:b4:22:d0:1d:
         48:db:75:65:c9:b3:0c:68:06:32:ea:c0:12:21:97:f1:9a:a2:
         91:19:df:51
-----BEGIN CERTIFICATE-----
MIIDzzCCAregAwIBAgIBAjANBgkqhkiG9w0BAQsFADCBkzELMAkGA1UEBhMCRlIx
DzANBgNVBAgMBlJhZGl1czESMBAGA1UEBwwJU29tZXdoZXJlMRUwEwYDVQQKDAxF
eGFtcGxlIEluYy4xIDAeBgkqhkiG9w0BCQEWEWFkbWluQGV4YW1wbGUub3JnMSYw
JAYDVQQDDB1FeGFtcGxlIENlcnRpZmljYXRlIEF1dGhvcml0eTAeFw0yMDA2MDkw
ODE3NDZaFw0yMDA4MDgwODE3NDZaMHExCzAJBgNVBAYTAkZSMQ8wDQYDVQQIDAZS
YWRpdXMxFTATBgNVBAoMDEV4YW1wbGUgSW5jLjEZMBcGA1UEAwwQdXNlckBleGFt
cGxlLm9yZzEfMB0GCSqGSIb3DQEJARYQdXNlckBleGFtcGxlLm9yZzCCASIwDQYJ
KoZIhvcNAQEBBQADggEPADCCAQoCggEBALzlOdgYtjgw58H8kzmGoSb4/fmRmqDL
HdnS4jnEQ+UP1u9Ff+DBLtuD7OIfGPCHXvU7jsn9sHUO6bC/7P5TzvGaEHrEVE8/
SOQHv6oLVzZkqEaNZHYcityfXvkN3pALRRyD7nhaXxqSOJtM0HN7j6sVIclbTpyy
9ObLHX6gXpBEcJpCO7BvixML0t5rTn8x3x/9msJ++4qmTSahPkf1yf6h/Yxra58F
57DtOYBE9fo+Pg8qwgK2bnXxjT8fvXeCdjGamJS0IhBdE3omhFVkS9NX9gWnDLtt
TP+xuSEqIdu9xlcKJbzVWFA9kCOmnS+q4k9f7bufd04rSDVRKzDirfMCAwEAAaNP
ME0wEwYDVR0lBAwwCgYIKwYBBQUHAwIwNgYDVR0fBC8wLTAroCmgJ4YlaHR0cDov
L3d3dy5leGFtcGxlLmNvbS9leGFtcGxlX2NhLmNybDANBgkqhkiG9w0BAQsFAAOC
AQEAhNfXATF5FXGYObEeWYJFhQYZWhtrHF/JbdapxFpVpp+HojiEdWVrHfLHesIP
g+KJHsbiLo0+/GZSMIkGsmk7jbp/oH5EtzXmo4XZ7CpTGlYSthPskksEf/EQ/Cyj
Zfskfl6F4SNaw/f3+1E6BD5plZQ7jY5MTBbwD9fDd6MLLqzFuNpa3DvnIa0kKRHw
JPeWjTIATY04jaU+EFz9CBOF6qN7DwrgkCsi++vwskbkD0kccXbRgzuNqmcjGz6l
zcs/+GnX02+fgyfTvxXbDjRd7bnukCmMYWdQFlzQZwHtTrqnoJUXjE+0ItAdSNt1
ZcmzDGgGMurAEiGX8ZqikRnfUQ==
-----END CERTIFICATE-----
