Certificate:
    Data:
        Version: 3 (0x2)
        Serial Number: 1 (0x1)
        Signature Algorithm: sha256WithRSAEncryption
        Issuer: C=FR, ST=Radius, L=Somewhere, O=Example Inc./emailAddress=admin@example.org, CN=Example Certificate Authority
        Validity
            Not Before: Apr 16 06:33:29 2021 GMT
            Not After : Apr 15 06:33:29 2024 GMT
        Subject: C=FR, ST=Radius, O=Example Inc., CN=Example Server Certificate/emailAddress=admin@example.org
        Subject Public Key Info:
            Public Key Algorithm: rsaEncryption
                RSA Public-Key: (2048 bit)
                Modulus:
                    00:bb:94:ea:ce:fe:8b:17:57:a3:e7:be:88:24:79:
                    b2:b9:dd:24:6a:de:6d:43:16:3d:d0:45:50:2c:05:
                    c3:86:e1:8a:e7:99:6f:75:01:06:44:64:1d:4d:b2:
                    ef:f9:bb:76:12:c9:04:91:a4:5c:b2:04:3c:5b:b8:
                    d3:eb:51:bf:db:d0:67:87:f3:2c:d0:87:32:df:83:
                    74:3c:de:ce:9d:bc:62:1c:d9:f0:80:b1:f7:a7:4a:
                    25:13:16:f6:c7:a3:78:1e:4d:96:43:10:6f:e6:96:
                    e9:ca:47:a4:d0:10:41:54:93:e6:d6:42:ab:d0:c6:
                    f3:dc:c6:05:9c:aa:a9:4b:ac:8f:a2:bf:d5:1f:5d:
                    88:bd:25:83:6e:82:67:31:41:30:00:4e:52:da:c1:
                    1d:74:21:5b:3f:cc:5c:17:de:47:6e:10:bb:ca:79:
                    32:a4:e2:50:0d:bd:c4:8e:ce:b7:94:9d:36:75:05:
                    f9:33:a8:7c:13:20:30:f1:76:4b:11:8b:2d:54:c1:
                    9c:c3:64:51:a7:6c:38:31:f4:bf:d6:db:d2:f0:d6:
                    c5:50:1e:8b:e8:a0:1e:1e:7c:83:13:07:7f:f3:26:
                    89:20:af:41:36:47:2f:cb:c1:53:9e:b2:db:82:49:
                    67:2e:a8:82:53:7a:e9:d9:3d:c4:f7:34:a4:f7:d0:
                    21:e1
                Exponent: 65537 (0x10001)
        X509v3 extensions:
            X509v3 Extended Key Usage: 
                TLS Web Server Authentication
            X509v3 CRL Distribution Points: 

                Full Name:
                  URI:http://www.example.com/example_ca.crl

    Signature Algorithm: sha256WithRSAEncryption
         21:77:8b:ad:73:bc:48:10:21:e1:74:f4:8e:fe:d5:b1:b8:c2:
         d5:da:39:da:c5:5b:59:95:cb:a9:39:9a:e7:e6:f1:9f:90:94:
         e8:aa:6e:95:91:40:6d:4b:83:33:7d:1e:13:da:31:fc:af:5b:
         02:03:c5:52:fe:1f:19:d5:e4:82:aa:19:5b:8d:b3:52:77:db:
         10:d9:d0:37:63:7a:fa:cd:be:f9:d7:75:1d:8b:dc:c6:ed:6b:
         7e:ba:4b:4b:af:87:df:61:c1:a2:5a:1d:7a:fa:d6:d8:7c:c4:
         f7:b0:da:86:c8:d4:4e:db:34:d2:16:82:2b:b1:07:05:d7:fe:
         1b:b5:f7:a0:4e:a7:34:1a:03:41:bc:ce:2e:91:eb:b5:ad:37:
         10:68:98:ef:a9:4c:99:6b:44:9d:2c:60:97:fd:9e:ec:bb:81:
         37:b0:0d:51:f6:f1:89:a1:7a:67:d3:f8:48:8d:44:80:66:61:
         46:27:7b:e4:20:e3:5d:69:84:14:d6:d8:10:62:2b:aa:88:e3:
         f5:88:a4:d5:1d:06:83:f0:1c:86:b6:52:6e:a3:dd:69:cd:aa:
         0c:31:c7:c7:52:e0:ad:4c:c2:fb:61:dd:96:d9:d9:64:c3:74:
         ea:bf:8e:4a:20:40:21:25:a5:d1:28:59:6c:b4:d6:ab:5b:9f:
         b9:2f:1a:c1
-----BEGIN CERTIFICATE-----
MIID2jCCAsKgAwIBAgIBATANBgkqhkiG9w0BAQsFADCBkzELMAkGA1UEBhMCRlIx
DzANBgNVBAgMBlJhZGl1czESMBAGA1UEBwwJU29tZXdoZXJlMRUwEwYDVQQKDAxF
eGFtcGxlIEluYy4xIDAeBgkqhkiG9w0BCQEWEWFkbWluQGV4YW1wbGUub3JnMSYw
JAYDVQQDDB1FeGFtcGxlIENlcnRpZmljYXRlIEF1dGhvcml0eTAeFw0yMTA0MTYw
NjMzMjlaFw0yNDA0MTUwNjMzMjlaMHwxCzAJBgNVBAYTAkZSMQ8wDQYDVQQIDAZS
YWRpdXMxFTATBgNVBAoMDEV4YW1wbGUgSW5jLjEjMCEGA1UEAwwaRXhhbXBsZSBT
ZXJ2ZXIgQ2VydGlmaWNhdGUxIDAeBgkqhkiG9w0BCQEWEWFkbWluQGV4YW1wbGUu
b3JnMIIBIjANBgkqhkiG9w0BAQEFAAOCAQ8AMIIBCgKCAQEAu5Tqzv6LF1ej576I
JHmyud0kat5tQxY90EVQLAXDhuGK55lvdQEGRGQdTbLv+bt2EskEkaRcsgQ8W7jT
61G/29Bnh/Ms0Icy34N0PN7OnbxiHNnwgLH3p0olExb2x6N4Hk2WQxBv5pbpykek
0BBBVJPm1kKr0Mbz3MYFnKqpS6yPor/VH12IvSWDboJnMUEwAE5S2sEddCFbP8xc
F95HbhC7ynkypOJQDb3Ejs63lJ02dQX5M6h8EyAw8XZLEYstVMGcw2RRp2w4MfS/
1tvS8NbFUB6L6KAeHnyDEwd/8yaJIK9BNkcvy8FTnrLbgklnLqiCU3rp2T3E9zSk
99Ah4QIDAQABo08wTTATBgNVHSUEDDAKBggrBgEFBQcDATA2BgNVHR8ELzAtMCug
KaAnhiVodHRwOi8vd3d3LmV4YW1wbGUuY29tL2V4YW1wbGVfY2EuY3JsMA0GCSqG
SIb3DQEBCwUAA4IBAQAhd4utc7xIECHhdPSO/tWxuMLV2jnaxVtZlcupOZrn5vGf
kJToqm6VkUBtS4MzfR4T2jH8r1sCA8VS/h8Z1eSCqhlbjbNSd9sQ2dA3Y3r6zb75
13Udi9zG7Wt+uktLr4ffYcGiWh16+tbYfMT3sNqGyNRO2zTSFoIrsQcF1/4btfeg
Tqc0GgNBvM4ukeu1rTcQaJjvqUyZa0SdLGCX/Z7su4E3sA1R9vGJoXpn0/hIjUSA
ZmFGJ3vkIONdaYQU1tgQYiuqiOP1iKTVHQaD8ByGtlJuo91pzaoMMcfHUuCtTML7
Yd2W2dlkw3Tqv45KIEAhJaXRKFlstNarW5+5LxrB
-----END CERTIFICATE-----
